target datalayout = "e-m:e-p270:32:32-p271:32:32-p272:64:64-i64:64-i128:128-f80:128-n8:16:32:64-S128"
target triple = "x86_64-unknown-linux-gnu"

%struct.Property = type { ptr, ptr, i64, i8, i64, i8, %union.anon, i32, ptr, i32, ptr }
%union.anon = type { i64 }

; Function Attrs: nounwind sspstrong uwtable
define dso_local ptr @object_field_prop_ptr(ptr noundef %obj, ptr noundef %prop) #0 {
entry:
  %obj.addr = alloca ptr, align 8
  %prop.addr = alloca ptr, align 8
  %ptr = alloca ptr, align 8
  store ptr %obj, ptr %obj.addr, align 8
  store ptr %prop, ptr %prop.addr, align 8
  %0 = load ptr, ptr %obj.addr, align 8
  store ptr %0, ptr %ptr, align 8
  %1 = load ptr, ptr %prop.addr, align 8
  %offset = getelementptr inbounds %struct.Property, ptr %1, i32 0, i32 2
  %2 = load i64, ptr %offset, align 8
  %3 = load ptr, ptr %ptr, align 8
  %add.ptr = getelementptr i8, ptr %3, i64 %2
  store ptr %add.ptr, ptr %ptr, align 8
  %4 = load ptr, ptr %ptr, align 8
  ret ptr %4
}

; Function Attrs: nounwind sspstrong uwtable
define internal void @set_string(ptr noundef %obj, ptr noundef %v, ptr noundef %name, ptr noundef %opaque, ptr noundef %errp) #0 {
entry:
  %obj.addr = alloca ptr, align 8
  %v.addr = alloca ptr, align 8
  %name.addr = alloca ptr, align 8
  %opaque.addr = alloca ptr, align 8
  %errp.addr = alloca ptr, align 8
  %prop = alloca ptr, align 8
  %ptr = alloca ptr, align 8
  %str = alloca ptr, align 8
  store ptr %obj, ptr %obj.addr, align 8
  store ptr %v, ptr %v.addr, align 8
  store ptr %name, ptr %name.addr, align 8
  store ptr %opaque, ptr %opaque.addr, align 8
  store ptr %errp, ptr %errp.addr, align 8
  %0 = load ptr, ptr %opaque.addr, align 8
  store ptr %0, ptr %prop, align 8
  %1 = load ptr, ptr %obj.addr, align 8
  %2 = load ptr, ptr %prop, align 8
  %call = call ptr @object_field_prop_ptr(ptr noundef %1, ptr noundef %2)
  store ptr %call, ptr %ptr, align 8
  %3 = load ptr, ptr %v.addr, align 8
  %4 = load ptr, ptr %name.addr, align 8
  %5 = load ptr, ptr %errp.addr, align 8
  %call1 = call zeroext i1 @visit_type_str(ptr noundef %3, ptr noundef %4, ptr noundef %str, ptr noundef %5)
  br i1 %call1, label %if.end, label %if.then

if.then:                                          ; preds = %entry
  br label %return

if.end:                                           ; preds = %entry
  %6 = load ptr, ptr %ptr, align 8
  %7 = load ptr, ptr %6, align 8
  call void @g_free(ptr noundef %7)
  %8 = load ptr, ptr %str, align 8
  %9 = load ptr, ptr %ptr, align 8
  store ptr %8, ptr %9, align 8
  br label %return

return:                                           ; preds = %if.end, %if.then
  ret void
}