; Function Attrs: nounwind sspstrong uwtable
define internal void @set_string(ptr noundef captures(none) %obj, ptr noundef %v, ptr noundef %name, ptr noundef readonly captures(none) %opaque, ptr noundef %errp) #0 {
entry:
  %str = alloca ptr, align 8
  %offset.i = getelementptr inbounds nuw i8, ptr %opaque, i64 16
  %0 = load i64, ptr %offset.i, align 8
  %call1 = call zeroext i1 @visit_type_str(ptr noundef %v, ptr noundef %name, ptr noundef nonnull %str, ptr noundef %errp) #9
  br i1 %call1, label %if.end, label %return

if.end:                                           ; preds = %entry
  %add.ptr.i = getelementptr i8, ptr %obj, i64 %0
  %1 = load ptr, ptr %add.ptr.i, align 8
  call void @g_free(ptr noundef %1) #9
  %2 = load ptr, ptr %str, align 8
  store ptr %2, ptr %add.ptr.i, align 8
  br label %return

return:                                           ; preds = %entry, %if.end
  ret void
}